; Function Attrs: nounwind uwtable
define ptr @Ivy_Exor(ptr noundef %0, ptr noundef %1, ptr noundef %2) local_unnamed_addr #0 {
  %4 = ptrtoint ptr %2 to i64
  %5 = xor i64 %4, 1
  %6 = inttoptr i64 %5 to ptr
  %7 = icmp eq ptr %1, %6
  br i1 %7, label %Ivy_And.exit, label %8

8:                                                ; preds = %3
  %9 = icmp eq ptr %1, %2
  br i1 %9, label %10, label %16

10:                                               ; preds = %8
  %11 = getelementptr inbounds nuw i8, ptr %0, i64 32
  %12 = load ptr, ptr %11, align 8, !tbaa !3
  %13 = ptrtoint ptr %12 to i64
  %14 = xor i64 %13, 1
  %15 = inttoptr i64 %14 to ptr
  br label %Ivy_And.exit

16:                                               ; preds = %8
  %17 = ptrtoint ptr %1 to i64
  %18 = and i64 %17, -2
  %19 = inttoptr i64 %18 to ptr
  %20 = getelementptr inbounds nuw i8, ptr %0, i64 32
  %21 = load ptr, ptr %20, align 8, !tbaa !3
  %22 = icmp eq ptr %21, %19
  br i1 %22, label %23, label %28

23:                                               ; preds = %16
  %24 = icmp eq ptr %1, %19
  br i1 %24, label %Ivy_And.exit, label %25

25:                                               ; preds = %23
  %26 = or i64 %17, 1
  %27 = inttoptr i64 %26 to ptr
  br label %Ivy_And.exit

28:                                               ; preds = %16
  %29 = and i64 %4, -2
  %30 = inttoptr i64 %29 to ptr
  %31 = icmp eq ptr %21, %30
  br i1 %31, label %32, label %38

32:                                               ; preds = %28
  %33 = icmp eq ptr %21, %6
  br i1 %33, label %Ivy_And.exit, label %34

34:                                               ; preds = %32
  %35 = ptrtoint ptr %21 to i64
  %36 = xor i64 %35, 1
  %37 = inttoptr i64 %36 to ptr
  br label %Ivy_And.exit

38:                                               ; preds = %28
  %39 = tail call ptr @Ivy_CanonAnd(ptr noundef nonnull %0, ptr noundef %1, ptr noundef %6) #2
  br label %Ivy_And.exit

Ivy_And.exit:                                     ; preds = %3, %10, %23, %25, %32, %34, %38
  %.0.i = phi ptr [ %15, %10 ], [ %39, %38 ], [ %1, %3 ], [ %27, %25 ], [ %6, %23 ], [ %37, %34 ], [ %1, %32 ]
  %40 = ptrtoint ptr %1 to i64
  %41 = xor i64 %40, 1
  %42 = inttoptr i64 %41 to ptr
  %43 = icmp eq ptr %2, %42
  br i1 %43, label %Ivy_And.exit8, label %44

44:                                               ; preds = %Ivy_And.exit
  %45 = icmp eq ptr %1, %2
  br i1 %45, label %46, label %52

46:                                               ; preds = %44
  %47 = getelementptr inbounds nuw i8, ptr %0, i64 32
  %48 = load ptr, ptr %47, align 8, !tbaa !3
  %49 = ptrtoint ptr %48 to i64
  %50 = xor i64 %49, 1
  %51 = inttoptr i64 %50 to ptr
  br label %Ivy_And.exit8

52:                                               ; preds = %44
  %53 = and i64 %40, -2
  %54 = inttoptr i64 %53 to ptr
  %55 = getelementptr inbounds nuw i8, ptr %0, i64 32
  %56 = load ptr, ptr %55, align 8, !tbaa !3
  %57 = icmp eq ptr %56, %54
  br i1 %57, label %58, label %63

58:                                               ; preds = %52
  %59 = icmp eq i64 %41, %53
  br i1 %59, label %Ivy_And.exit8, label %60

60:                                               ; preds = %58
  %61 = or i64 %40, 1
  %62 = inttoptr i64 %61 to ptr
  br label %Ivy_And.exit8

63:                                               ; preds = %52
  %64 = and i64 %4, -2
  %65 = inttoptr i64 %64 to ptr
  %66 = icmp eq ptr %56, %65
  br i1 %66, label %67, label %72

67:                                               ; preds = %63
  %68 = icmp eq ptr %2, %65
  br i1 %68, label %Ivy_And.exit8, label %69

69:                                               ; preds = %67
  %70 = or i64 %4, 1
  %71 = inttoptr i64 %70 to ptr
  br label %Ivy_And.exit8

72:                                               ; preds = %63
  %73 = tail call ptr @Ivy_CanonAnd(ptr noundef nonnull %0, ptr noundef %42, ptr noundef %2) #2
  br label %Ivy_And.exit8

Ivy_And.exit8:                                    ; preds = %Ivy_And.exit, %46, %58, %60, %67, %69, %72
  %.0.i7 = phi ptr [ %51, %46 ], [ %73, %72 ], [ %2, %Ivy_And.exit ], [ %62, %60 ], [ %2, %58 ], [ %71, %69 ], [ %42, %67 ]
  %74 = ptrtoint ptr %.0.i to i64
  %75 = xor i64 %74, 1
  %76 = inttoptr i64 %75 to ptr
  %77 = ptrtoint ptr %.0.i7 to i64
  %78 = xor i64 %77, 1
  %79 = inttoptr i64 %78 to ptr
  %80 = icmp eq ptr %.0.i, %.0.i7
  br i1 %80, label %Ivy_Or.exit, label %81

81:                                               ; preds = %Ivy_And.exit8
  %82 = icmp eq ptr %.0.i7, %76
  br i1 %82, label %83, label %88

83:                                               ; preds = %81
  %84 = getelementptr inbounds nuw i8, ptr %0, i64 32
  %85 = load ptr, ptr %84, align 8, !tbaa !3
  %86 = ptrtoint ptr %85 to i64
  %87 = xor i64 %86, 1
  br label %Ivy_Or.exit

88:                                               ; preds = %81
  %89 = and i64 %74, -2
  %90 = inttoptr i64 %89 to ptr
  %91 = getelementptr inbounds nuw i8, ptr %0, i64 32
  %92 = load ptr, ptr %91, align 8, !tbaa !3
  %93 = icmp eq ptr %92, %90
  br i1 %93, label %94, label %97

94:                                               ; preds = %88
  %95 = icmp eq i64 %75, %89
  %96 = or i64 %74, 1
  %spec.select.i = select i1 %95, i64 %78, i64 %96
  br label %Ivy_Or.exit

97:                                               ; preds = %88
  %98 = and i64 %77, -2
  %99 = inttoptr i64 %98 to ptr
  %100 = icmp eq ptr %92, %99
  br i1 %100, label %101, label %106

101:                                              ; preds = %97
  %102 = icmp eq ptr %92, %79
  br i1 %102, label %Ivy_Or.exit, label %103

103:                                              ; preds = %101
  %104 = ptrtoint ptr %92 to i64
  %105 = xor i64 %104, 1
  br label %Ivy_Or.exit

106:                                              ; preds = %97
  %107 = tail call ptr @Ivy_CanonAnd(ptr noundef nonnull %0, ptr noundef %76, ptr noundef %79) #2
  %108 = ptrtoint ptr %107 to i64
  br label %Ivy_Or.exit

Ivy_Or.exit:                                      ; preds = %Ivy_And.exit8, %83, %94, %101, %103, %106
  %.0.i.i = phi i64 [ %87, %83 ], [ %108, %106 ], [ %75, %Ivy_And.exit8 ], [ %105, %103 ], [ %75, %101 ], [ %spec.select.i, %94 ]
  %109 = xor i64 %.0.i.i, 1
  %110 = inttoptr i64 %109 to ptr
  ret ptr %110
}